target datalayout = "e-m:e-p270:32:32-p271:32:32-p272:64:64-i64:64-i128:128-f80:128-n8:16:32:64-S128"
target triple = "x86_64-pc-linux-gnu"

%struct.fake_rsa_keydata = type { i32, i32 }

@.str.9 = private unnamed_addr constant [31 x i8] c"../openssl/test/fake_rsaprov.c\00", align 1
@.str.19 = private unnamed_addr constant [7 x i8] c"sigctx\00", align 1
@.str.20 = private unnamed_addr constant [8 x i8] c"keydata\00", align 1
@.str.21 = private unnamed_addr constant [16 x i8] c"keydata->status\00", align 1
@.str.22 = private unnamed_addr constant [2 x i8] c"0\00", align 1
@.str.28 = private unnamed_addr constant [7 x i8] c"NO_DUP\00", align 1

; Function Attrs: nounwind uwtable
define internal i32 @fake_rsa_dgstsgnvfy_init(ptr noundef %0, i8 noundef zeroext %1, ptr noundef %2, ptr noundef %3) #0 {
  %5 = alloca i32, align 4
  %6 = alloca ptr, align 8
  %7 = alloca i8, align 1
  %8 = alloca ptr, align 8
  %9 = alloca ptr, align 8
  %10 = alloca ptr, align 8
  %11 = alloca ptr, align 8
  %12 = alloca i32, align 4
  %13 = alloca ptr, align 8
  %14 = alloca i32, align 4
  store ptr %0, ptr %6, align 8, !tbaa !19
  store i8 %1, ptr %7, align 1, !tbaa !30
  store ptr %2, ptr %8, align 8, !tbaa !19
  store ptr %3, ptr %9, align 8, !tbaa !24
  call void @llvm.lifetime.start.p0(i64 8, ptr %10) #6
  %15 = load ptr, ptr %6, align 8, !tbaa !19
  store ptr %15, ptr %10, align 8, !tbaa !22
  call void @llvm.lifetime.start.p0(i64 8, ptr %11) #6
  %16 = load ptr, ptr %8, align 8, !tbaa !19
  store ptr %16, ptr %11, align 8, !tbaa !26
  %17 = load ptr, ptr %10, align 8, !tbaa !22
  %18 = call i32 @test_ptr(ptr noundef @.str.9, i32 noundef 383, ptr noundef @.str.19, ptr noundef %17)
  %19 = icmp ne i32 %18, 0
  br i1 %19, label %21, label %20

20:                                               ; preds = %4
  store i32 0, ptr %5, align 4
  store i32 1, ptr %12, align 4
  br label %55

21:                                               ; preds = %4
  %22 = load ptr, ptr %11, align 8, !tbaa !26
  %23 = call i32 @test_ptr(ptr noundef @.str.9, i32 noundef 387, ptr noundef @.str.20, ptr noundef %22)
  %24 = icmp ne i32 %23, 0
  br i1 %24, label %25, label %31

25:                                               ; preds = %21
  %26 = load ptr, ptr %11, align 8, !tbaa !26
  %27 = getelementptr inbounds nuw %struct.fake_rsa_keydata, ptr %26, i32 0, i32 1
  %28 = load i32, ptr %27, align 4, !tbaa !28
  %29 = call i32 @test_int_gt(ptr noundef @.str.9, i32 noundef 387, ptr noundef @.str.21, ptr noundef @.str.22, i32 noundef %28, i32 noundef 0)
  %30 = icmp ne i32 %29, 0
  br i1 %30, label %32, label %31

31:                                               ; preds = %25, %21
  store i32 0, ptr %5, align 4
  store i32 1, ptr %12, align 4
  br label %55

32:                                               ; preds = %25
  %33 = load i8, ptr %7, align 1, !tbaa !30
  %34 = load ptr, ptr %10, align 8, !tbaa !22
  store i8 %33, ptr %34, align 1, !tbaa !30
  %35 = load ptr, ptr %9, align 8, !tbaa !24
  %36 = icmp ne ptr %35, null
  br i1 %36, label %37, label %54

37:                                               ; preds = %32
  call void @llvm.lifetime.start.p0(i64 8, ptr %13) #6
  call void @llvm.lifetime.start.p0(i64 4, ptr %14) #6
  %38 = load ptr, ptr %9, align 8, !tbaa !24
  %39 = call ptr @OSSL_PARAM_locate_const(ptr noundef %38, ptr noundef @.str.28)
  store ptr %39, ptr %13, align 8, !tbaa !24
  %40 = load ptr, ptr %13, align 8, !tbaa !24
  %41 = icmp ne ptr %40, null
  br i1 %41, label %42, label %53

42:                                               ; preds = %37
  %43 = load ptr, ptr %13, align 8, !tbaa !24
  %44 = call i32 @OSSL_PARAM_get_int(ptr noundef %43, ptr noundef %14)
  %45 = icmp ne i32 %44, 0
  br i1 %45, label %46, label %52

46:                                               ; preds = %42
  %47 = load ptr, ptr %10, align 8, !tbaa !22
  %48 = load i8, ptr %47, align 1, !tbaa !30
  %49 = zext i8 %48 to i32
  %50 = or i32 %49, 160
  %51 = trunc i32 %50 to i8
  store i8 %51, ptr %47, align 1, !tbaa !30
  br label %52

52:                                               ; preds = %46, %42
  br label %53

53:                                               ; preds = %52, %37
  call void @llvm.lifetime.end.p0(i64 4, ptr %14) #6
  call void @llvm.lifetime.end.p0(i64 8, ptr %13) #6
  br label %54

54:                                               ; preds = %53, %32
  store i32 1, ptr %5, align 4
  store i32 1, ptr %12, align 4
  br label %55

55:                                               ; preds = %54, %31, %20
  call void @llvm.lifetime.end.p0(i64 8, ptr %11) #6
  call void @llvm.lifetime.end.p0(i64 8, ptr %10) #6
  %56 = load i32, ptr %5, align 4
  ret i32 %56
}