; Function Attrs: nounwind uwtable
define internal fastcc range(i32 0, 2) i32 @fake_rsa_dgstsgnvfy_init(ptr noundef %0, i8 noundef zeroext range(i8 1, 3) %1, ptr noundef %2, ptr noundef %3) unnamed_addr #1 {
  %5 = alloca i32, align 4
  %6 = tail call i32 @test_ptr(ptr noundef nonnull @.str.9, i32 noundef 383, ptr noundef nonnull @.str.19, ptr noundef %0) #12
  %.not = icmp eq i32 %6, 0
  br i1 %.not, label %22, label %7

7:                                                ; preds = %4
  %8 = tail call i32 @test_ptr(ptr noundef nonnull @.str.9, i32 noundef 387, ptr noundef nonnull @.str.20, ptr noundef %2) #12
  %.not14 = icmp eq i32 %8, 0
  br i1 %.not14, label %22, label %9

9:                                                ; preds = %7
  %10 = getelementptr inbounds nuw i8, ptr %2, i64 4
  %11 = load i32, ptr %10, align 4, !tbaa !12
  %12 = tail call i32 @test_int_gt(ptr noundef nonnull @.str.9, i32 noundef 387, ptr noundef nonnull @.str.21, ptr noundef nonnull @.str.22, i32 noundef %11, i32 noundef 0) #12
  %.not15 = icmp eq i32 %12, 0
  br i1 %.not15, label %22, label %13

13:                                               ; preds = %9
  store i8 %1, ptr %0, align 1, !tbaa !14
  %.not16 = icmp eq ptr %3, null
  br i1 %.not16, label %22, label %14

14:                                               ; preds = %13
  call void @llvm.lifetime.start.p0(i64 4, ptr nonnull %5) #12
  %15 = tail call ptr @OSSL_PARAM_locate_const(ptr noundef nonnull %3, ptr noundef nonnull @.str.28) #12
  %.not17 = icmp eq ptr %15, null
  br i1 %.not17, label %21, label %16

16:                                               ; preds = %14
  %17 = call i32 @OSSL_PARAM_get_int(ptr noundef nonnull %15, ptr noundef nonnull %5) #12
  %.not18 = icmp eq i32 %17, 0
  br i1 %.not18, label %21, label %18

18:                                               ; preds = %16
  %19 = load i8, ptr %0, align 1, !tbaa !14
  %20 = or i8 %19, -96
  store i8 %20, ptr %0, align 1, !tbaa !14
  br label %21

21:                                               ; preds = %16, %18, %14
  call void @llvm.lifetime.end.p0(i64 4, ptr nonnull %5) #12
  br label %22

22:                                               ; preds = %13, %21, %7, %9, %4
  %.0 = phi i32 [ 0, %4 ], [ 0, %9 ], [ 0, %7 ], [ 1, %21 ], [ 1, %13 ]
  ret i32 %.0
}